; Function Attrs: mustprogress nofree norecurse nosync nounwind willreturn memory(argmem: read) uwtable
define i32 @If_DsdManPermBitNum(ptr noundef readonly captures(none) %0) local_unnamed_addr #0 {
  %2 = getelementptr inbounds nuw i8, ptr %0, i64 8
  %3 = load i32, ptr %2, align 8, !tbaa !19
  %4 = add nsw i32 %3, 1
  %5 = icmp ult i32 %4, 2
  %6 = tail call range(i32 0, 33) i32 @llvm.ctlz.i32(i32 %3, i1 true)
  %7 = sub nuw nsw i32 32, %6
  %.09.i = select i1 %5, i32 %4, i32 %7
  %8 = add nsw i32 %.09.i, 1
  %9 = mul nsw i32 %8, %3
  ret i32 %9
}